
divu.elf:     file format elf32-littleriscv


Disassembly of section .text.init:

10000000 <_start>:
10000000:	0040006f          	j	10000004 <reset_vector>

10000004 <reset_vector>:
10000004:	51e05073          	csrwi	0x51e,0
10000008:	00000193          	li	x3,0

1000000c <test_2>:
1000000c:	01400093          	li	x1,20
10000010:	00600113          	li	x2,6
10000014:	0220d733          	divu	x14,x1,x2
10000018:	00300393          	li	x7,3
1000001c:	00200193          	li	x3,2
10000020:	0c771663          	bne	x14,x7,100000ec <fail>

10000024 <test_3>:
10000024:	fec00093          	li	x1,-20
10000028:	00600113          	li	x2,6
1000002c:	0220d733          	divu	x14,x1,x2
10000030:	2aaab3b7          	lui	x7,0x2aaab
10000034:	aa738393          	addi	x7,x7,-1369 # 2aaaaaa7 <_end+0x1aaa9aa7>
10000038:	00300193          	li	x3,3
1000003c:	0a771863          	bne	x14,x7,100000ec <fail>

10000040 <test_4>:
10000040:	01400093          	li	x1,20
10000044:	ffa00113          	li	x2,-6
10000048:	0220d733          	divu	x14,x1,x2
1000004c:	00000393          	li	x7,0
10000050:	00400193          	li	x3,4
10000054:	08771c63          	bne	x14,x7,100000ec <fail>

10000058 <test_5>:
10000058:	fec00093          	li	x1,-20
1000005c:	ffa00113          	li	x2,-6
10000060:	0220d733          	divu	x14,x1,x2
10000064:	00000393          	li	x7,0
10000068:	00500193          	li	x3,5
1000006c:	08771063          	bne	x14,x7,100000ec <fail>

10000070 <test_6>:
10000070:	800000b7          	lui	x1,0x80000
10000074:	00100113          	li	x2,1
10000078:	0220d733          	divu	x14,x1,x2
1000007c:	800003b7          	lui	x7,0x80000
10000080:	00600193          	li	x3,6
10000084:	06771463          	bne	x14,x7,100000ec <fail>

10000088 <test_7>:
10000088:	800000b7          	lui	x1,0x80000
1000008c:	fff00113          	li	x2,-1
10000090:	0220d733          	divu	x14,x1,x2
10000094:	00000393          	li	x7,0
10000098:	00700193          	li	x3,7
1000009c:	04771863          	bne	x14,x7,100000ec <fail>

100000a0 <test_8>:
100000a0:	800000b7          	lui	x1,0x80000
100000a4:	00000113          	li	x2,0
100000a8:	0220d733          	divu	x14,x1,x2
100000ac:	fff00393          	li	x7,-1
100000b0:	00800193          	li	x3,8
100000b4:	02771c63          	bne	x14,x7,100000ec <fail>

100000b8 <test_9>:
100000b8:	00100093          	li	x1,1
100000bc:	00000113          	li	x2,0
100000c0:	0220d733          	divu	x14,x1,x2
100000c4:	fff00393          	li	x7,-1
100000c8:	00900193          	li	x3,9
100000cc:	02771063          	bne	x14,x7,100000ec <fail>

100000d0 <test_10>:
100000d0:	00000093          	li	x1,0
100000d4:	00000113          	li	x2,0
100000d8:	0220d733          	divu	x14,x1,x2
100000dc:	fff00393          	li	x7,-1
100000e0:	00a00193          	li	x3,10
100000e4:	00771463          	bne	x14,x7,100000ec <fail>
100000e8:	00301a63          	bne	x0,x3,100000fc <pass>

100000ec <fail>:
100000ec:	00119193          	slli	x3,x3,0x1
100000f0:	0011e193          	ori	x3,x3,1
100000f4:	51e19073          	csrw	0x51e,x3

100000f8 <f>:
100000f8:	0000006f          	j	100000f8 <f>

100000fc <pass>:
100000fc:	00100193          	li	x3,1
10000100:	51e19073          	csrw	0x51e,x3

10000104 <p>:
10000104:	0000006f          	j	10000104 <p>
10000108:	c0001073          	unimp
	...

Disassembly of section .riscv.attributes:

00000000 <.riscv.attributes>:
   0:	1e41                	addi	x28,x28,-16
   2:	0000                	unimp
   4:	7200                	flw	f8,32(x12)
   6:	7369                	lui	x6,0xffffa
   8:	01007663          	bgeu	x0,x16,14 <_start-0xfffffec>
   c:	0014                	0x14
   e:	0000                	unimp
  10:	7205                	lui	x4,0xfffe1
  12:	3376                	fld	f6,376(x2)
  14:	6932                	flw	f18,12(x2)
  16:	7032                	flw	f0,44(x2)
  18:	5f30                	lw	x12,120(x14)
  1a:	326d                	jal	fffff9c4 <_end+0xefffe9c4>
  1c:	3070                	fld	f12,224(x8)
	...
