
mul.elf:     file format elf32-littleriscv


Disassembly of section .text.init:

10000000 <_start>:
10000000:	0040006f          	j	10000004 <reset_vector>

10000004 <reset_vector>:
10000004:	51e05073          	csrwi	0x51e,0
10000008:	00000193          	li	x3,0

1000000c <test_32>:
1000000c:	000080b7          	lui	x1,0x8
10000010:	e0008093          	addi	x1,x1,-512 # 7e00 <_start-0xfff8200>
10000014:	b6db7137          	lui	x2,0xb6db7
10000018:	db710113          	addi	x2,x2,-585 # b6db6db7 <_end+0xa6db5db7>
1000001c:	02208733          	mul	x14,x1,x2
10000020:	000013b7          	lui	x7,0x1
10000024:	20038393          	addi	x7,x7,512 # 1200 <_start-0xfffee00>
10000028:	02000193          	li	x3,32
1000002c:	4a771463          	bne	x14,x7,100004d4 <fail>

10000030 <test_33>:
10000030:	000080b7          	lui	x1,0x8
10000034:	fc008093          	addi	x1,x1,-64 # 7fc0 <_start-0xfff8040>
10000038:	b6db7137          	lui	x2,0xb6db7
1000003c:	db710113          	addi	x2,x2,-585 # b6db6db7 <_end+0xa6db5db7>
10000040:	02208733          	mul	x14,x1,x2
10000044:	000013b7          	lui	x7,0x1
10000048:	24038393          	addi	x7,x7,576 # 1240 <_start-0xfffedc0>
1000004c:	02100193          	li	x3,33
10000050:	48771263          	bne	x14,x7,100004d4 <fail>

10000054 <test_2>:
10000054:	00000093          	li	x1,0
10000058:	00000113          	li	x2,0
1000005c:	02208733          	mul	x14,x1,x2
10000060:	00000393          	li	x7,0
10000064:	00200193          	li	x3,2
10000068:	46771663          	bne	x14,x7,100004d4 <fail>

1000006c <test_3>:
1000006c:	00100093          	li	x1,1
10000070:	00100113          	li	x2,1
10000074:	02208733          	mul	x14,x1,x2
10000078:	00100393          	li	x7,1
1000007c:	00300193          	li	x3,3
10000080:	44771a63          	bne	x14,x7,100004d4 <fail>

10000084 <test_4>:
10000084:	00300093          	li	x1,3
10000088:	00700113          	li	x2,7
1000008c:	02208733          	mul	x14,x1,x2
10000090:	01500393          	li	x7,21
10000094:	00400193          	li	x3,4
10000098:	42771e63          	bne	x14,x7,100004d4 <fail>

1000009c <test_5>:
1000009c:	00000093          	li	x1,0
100000a0:	ffff8137          	lui	x2,0xffff8
100000a4:	02208733          	mul	x14,x1,x2
100000a8:	00000393          	li	x7,0
100000ac:	00500193          	li	x3,5
100000b0:	42771263          	bne	x14,x7,100004d4 <fail>

100000b4 <test_6>:
100000b4:	800000b7          	lui	x1,0x80000
100000b8:	00000113          	li	x2,0
100000bc:	02208733          	mul	x14,x1,x2
100000c0:	00000393          	li	x7,0
100000c4:	00600193          	li	x3,6
100000c8:	40771663          	bne	x14,x7,100004d4 <fail>

100000cc <test_7>:
100000cc:	800000b7          	lui	x1,0x80000
100000d0:	ffff8137          	lui	x2,0xffff8
100000d4:	02208733          	mul	x14,x1,x2
100000d8:	00000393          	li	x7,0
100000dc:	00700193          	li	x3,7
100000e0:	3e771a63          	bne	x14,x7,100004d4 <fail>

100000e4 <test_30>:
100000e4:	aaaab0b7          	lui	x1,0xaaaab
100000e8:	aab08093          	addi	x1,x1,-1365 # aaaaaaab <_end+0x9aaa9aab>
100000ec:	00030137          	lui	x2,0x30
100000f0:	e7d10113          	addi	x2,x2,-387 # 2fe7d <_start-0xffd0183>
100000f4:	02208733          	mul	x14,x1,x2
100000f8:	000103b7          	lui	x7,0x10
100000fc:	f7f38393          	addi	x7,x7,-129 # ff7f <_start-0xfff0081>
10000100:	01e00193          	li	x3,30
10000104:	3c771863          	bne	x14,x7,100004d4 <fail>

10000108 <test_31>:
10000108:	000300b7          	lui	x1,0x30
1000010c:	e7d08093          	addi	x1,x1,-387 # 2fe7d <_start-0xffd0183>
10000110:	aaaab137          	lui	x2,0xaaaab
10000114:	aab10113          	addi	x2,x2,-1365 # aaaaaaab <_end+0x9aaa9aab>
10000118:	02208733          	mul	x14,x1,x2
1000011c:	000103b7          	lui	x7,0x10
10000120:	f7f38393          	addi	x7,x7,-129 # ff7f <_start-0xfff0081>
10000124:	01f00193          	li	x3,31
10000128:	3a771663          	bne	x14,x7,100004d4 <fail>

1000012c <test_34>:
1000012c:	ff0000b7          	lui	x1,0xff000
10000130:	ff000137          	lui	x2,0xff000
10000134:	02208733          	mul	x14,x1,x2
10000138:	00000393          	li	x7,0
1000013c:	02200193          	li	x3,34
10000140:	38771a63          	bne	x14,x7,100004d4 <fail>

10000144 <test_35>:
10000144:	fff00093          	li	x1,-1
10000148:	fff00113          	li	x2,-1
1000014c:	02208733          	mul	x14,x1,x2
10000150:	00100393          	li	x7,1
10000154:	02300193          	li	x3,35
10000158:	36771e63          	bne	x14,x7,100004d4 <fail>

1000015c <test_36>:
1000015c:	fff00093          	li	x1,-1
10000160:	00100113          	li	x2,1
10000164:	02208733          	mul	x14,x1,x2
10000168:	fff00393          	li	x7,-1
1000016c:	02400193          	li	x3,36
10000170:	36771263          	bne	x14,x7,100004d4 <fail>

10000174 <test_37>:
10000174:	00100093          	li	x1,1
10000178:	fff00113          	li	x2,-1
1000017c:	02208733          	mul	x14,x1,x2
10000180:	fff00393          	li	x7,-1
10000184:	02500193          	li	x3,37
10000188:	34771663          	bne	x14,x7,100004d4 <fail>

1000018c <test_8>:
1000018c:	00d00093          	li	x1,13
10000190:	00b00113          	li	x2,11
10000194:	022080b3          	mul	x1,x1,x2
10000198:	08f00393          	li	x7,143
1000019c:	00800193          	li	x3,8
100001a0:	32709a63          	bne	x1,x7,100004d4 <fail>

100001a4 <test_9>:
100001a4:	00e00093          	li	x1,14
100001a8:	00b00113          	li	x2,11
100001ac:	02208133          	mul	x2,x1,x2
100001b0:	09a00393          	li	x7,154
100001b4:	00900193          	li	x3,9
100001b8:	30711e63          	bne	x2,x7,100004d4 <fail>

100001bc <test_10>:
100001bc:	00d00093          	li	x1,13
100001c0:	021080b3          	mul	x1,x1,x1
100001c4:	0a900393          	li	x7,169
100001c8:	00a00193          	li	x3,10
100001cc:	30709463          	bne	x1,x7,100004d4 <fail>

100001d0 <test_11>:
100001d0:	00000213          	li	x4,0
100001d4:	00d00093          	li	x1,13
100001d8:	00b00113          	li	x2,11
100001dc:	02208733          	mul	x14,x1,x2
100001e0:	00070313          	mv	x6,x14
100001e4:	00120213          	addi	x4,x4,1 # 1 <_start-0xfffffff>
100001e8:	00200293          	li	x5,2
100001ec:	fe5214e3          	bne	x4,x5,100001d4 <test_11+0x4>
100001f0:	08f00393          	li	x7,143
100001f4:	00b00193          	li	x3,11
100001f8:	2c731e63          	bne	x6,x7,100004d4 <fail>

100001fc <test_12>:
100001fc:	00000213          	li	x4,0
10000200:	00e00093          	li	x1,14
10000204:	00b00113          	li	x2,11
10000208:	02208733          	mul	x14,x1,x2
1000020c:	00000013          	nop
10000210:	00070313          	mv	x6,x14
10000214:	00120213          	addi	x4,x4,1 # 1 <_start-0xfffffff>
10000218:	00200293          	li	x5,2
1000021c:	fe5212e3          	bne	x4,x5,10000200 <test_12+0x4>
10000220:	09a00393          	li	x7,154
10000224:	00c00193          	li	x3,12
10000228:	2a731663          	bne	x6,x7,100004d4 <fail>

1000022c <test_13>:
1000022c:	00000213          	li	x4,0
10000230:	00f00093          	li	x1,15
10000234:	00b00113          	li	x2,11
10000238:	02208733          	mul	x14,x1,x2
1000023c:	00000013          	nop
10000240:	00000013          	nop
10000244:	00070313          	mv	x6,x14
10000248:	00120213          	addi	x4,x4,1 # 1 <_start-0xfffffff>
1000024c:	00200293          	li	x5,2
10000250:	fe5210e3          	bne	x4,x5,10000230 <test_13+0x4>
10000254:	0a500393          	li	x7,165
10000258:	00d00193          	li	x3,13
1000025c:	26731c63          	bne	x6,x7,100004d4 <fail>

10000260 <test_14>:
10000260:	00000213          	li	x4,0
10000264:	00d00093          	li	x1,13
10000268:	00b00113          	li	x2,11
1000026c:	02208733          	mul	x14,x1,x2
10000270:	00120213          	addi	x4,x4,1 # 1 <_start-0xfffffff>
10000274:	00200293          	li	x5,2
10000278:	fe5216e3          	bne	x4,x5,10000264 <test_14+0x4>
1000027c:	08f00393          	li	x7,143
10000280:	00e00193          	li	x3,14
10000284:	24771863          	bne	x14,x7,100004d4 <fail>

10000288 <test_15>:
10000288:	00000213          	li	x4,0
1000028c:	00e00093          	li	x1,14
10000290:	00b00113          	li	x2,11
10000294:	00000013          	nop
10000298:	02208733          	mul	x14,x1,x2
1000029c:	00120213          	addi	x4,x4,1 # 1 <_start-0xfffffff>
100002a0:	00200293          	li	x5,2
100002a4:	fe5214e3          	bne	x4,x5,1000028c <test_15+0x4>
100002a8:	09a00393          	li	x7,154
100002ac:	00f00193          	li	x3,15
100002b0:	22771263          	bne	x14,x7,100004d4 <fail>

100002b4 <test_16>:
100002b4:	00000213          	li	x4,0
100002b8:	00f00093          	li	x1,15
100002bc:	00b00113          	li	x2,11
100002c0:	00000013          	nop
100002c4:	00000013          	nop
100002c8:	02208733          	mul	x14,x1,x2
100002cc:	00120213          	addi	x4,x4,1 # 1 <_start-0xfffffff>
100002d0:	00200293          	li	x5,2
100002d4:	fe5212e3          	bne	x4,x5,100002b8 <test_16+0x4>
100002d8:	0a500393          	li	x7,165
100002dc:	01000193          	li	x3,16
100002e0:	1e771a63          	bne	x14,x7,100004d4 <fail>

100002e4 <test_17>:
100002e4:	00000213          	li	x4,0
100002e8:	00d00093          	li	x1,13
100002ec:	00000013          	nop
100002f0:	00b00113          	li	x2,11
100002f4:	02208733          	mul	x14,x1,x2
100002f8:	00120213          	addi	x4,x4,1 # 1 <_start-0xfffffff>
100002fc:	00200293          	li	x5,2
10000300:	fe5214e3          	bne	x4,x5,100002e8 <test_17+0x4>
10000304:	08f00393          	li	x7,143
10000308:	01100193          	li	x3,17
1000030c:	1c771463          	bne	x14,x7,100004d4 <fail>

10000310 <test_18>:
10000310:	00000213          	li	x4,0
10000314:	00e00093          	li	x1,14
10000318:	00000013          	nop
1000031c:	00b00113          	li	x2,11
10000320:	00000013          	nop
10000324:	02208733          	mul	x14,x1,x2
10000328:	00120213          	addi	x4,x4,1 # 1 <_start-0xfffffff>
1000032c:	00200293          	li	x5,2
10000330:	fe5212e3          	bne	x4,x5,10000314 <test_18+0x4>
10000334:	09a00393          	li	x7,154
10000338:	01200193          	li	x3,18
1000033c:	18771c63          	bne	x14,x7,100004d4 <fail>

10000340 <test_19>:
10000340:	00000213          	li	x4,0
10000344:	00f00093          	li	x1,15
10000348:	00000013          	nop
1000034c:	00000013          	nop
10000350:	00b00113          	li	x2,11
10000354:	02208733          	mul	x14,x1,x2
10000358:	00120213          	addi	x4,x4,1 # 1 <_start-0xfffffff>
1000035c:	00200293          	li	x5,2
10000360:	fe5212e3          	bne	x4,x5,10000344 <test_19+0x4>
10000364:	0a500393          	li	x7,165
10000368:	01300193          	li	x3,19
1000036c:	16771463          	bne	x14,x7,100004d4 <fail>

10000370 <test_20>:
10000370:	00000213          	li	x4,0
10000374:	00b00113          	li	x2,11
10000378:	00d00093          	li	x1,13
1000037c:	02208733          	mul	x14,x1,x2
10000380:	00120213          	addi	x4,x4,1 # 1 <_start-0xfffffff>
10000384:	00200293          	li	x5,2
10000388:	fe5216e3          	bne	x4,x5,10000374 <test_20+0x4>
1000038c:	08f00393          	li	x7,143
10000390:	01400193          	li	x3,20
10000394:	14771063          	bne	x14,x7,100004d4 <fail>

10000398 <test_21>:
10000398:	00000213          	li	x4,0
1000039c:	00b00113          	li	x2,11
100003a0:	00e00093          	li	x1,14
100003a4:	00000013          	nop
100003a8:	02208733          	mul	x14,x1,x2
100003ac:	00120213          	addi	x4,x4,1 # 1 <_start-0xfffffff>
100003b0:	00200293          	li	x5,2
100003b4:	fe5214e3          	bne	x4,x5,1000039c <test_21+0x4>
100003b8:	09a00393          	li	x7,154
100003bc:	01500193          	li	x3,21
100003c0:	10771a63          	bne	x14,x7,100004d4 <fail>

100003c4 <test_22>:
100003c4:	00000213          	li	x4,0
100003c8:	00b00113          	li	x2,11
100003cc:	00f00093          	li	x1,15
100003d0:	00000013          	nop
100003d4:	00000013          	nop
100003d8:	02208733          	mul	x14,x1,x2
100003dc:	00120213          	addi	x4,x4,1 # 1 <_start-0xfffffff>
100003e0:	00200293          	li	x5,2
100003e4:	fe5212e3          	bne	x4,x5,100003c8 <test_22+0x4>
100003e8:	0a500393          	li	x7,165
100003ec:	01600193          	li	x3,22
100003f0:	0e771263          	bne	x14,x7,100004d4 <fail>

100003f4 <test_23>:
100003f4:	00000213          	li	x4,0
100003f8:	00b00113          	li	x2,11
100003fc:	00000013          	nop
10000400:	00d00093          	li	x1,13
10000404:	02208733          	mul	x14,x1,x2
10000408:	00120213          	addi	x4,x4,1 # 1 <_start-0xfffffff>
1000040c:	00200293          	li	x5,2
10000410:	fe5214e3          	bne	x4,x5,100003f8 <test_23+0x4>
10000414:	08f00393          	li	x7,143
10000418:	01700193          	li	x3,23
1000041c:	0a771c63          	bne	x14,x7,100004d4 <fail>

10000420 <test_24>:
10000420:	00000213          	li	x4,0
10000424:	00b00113          	li	x2,11
10000428:	00000013          	nop
1000042c:	00e00093          	li	x1,14
10000430:	00000013          	nop
10000434:	02208733          	mul	x14,x1,x2
10000438:	00120213          	addi	x4,x4,1 # 1 <_start-0xfffffff>
1000043c:	00200293          	li	x5,2
10000440:	fe5212e3          	bne	x4,x5,10000424 <test_24+0x4>
10000444:	09a00393          	li	x7,154
10000448:	01800193          	li	x3,24
1000044c:	08771463          	bne	x14,x7,100004d4 <fail>

10000450 <test_25>:
10000450:	00000213          	li	x4,0
10000454:	00b00113          	li	x2,11
10000458:	00000013          	nop
1000045c:	00000013          	nop
10000460:	00f00093          	li	x1,15
10000464:	02208733          	mul	x14,x1,x2
10000468:	00120213          	addi	x4,x4,1 # 1 <_start-0xfffffff>
1000046c:	00200293          	li	x5,2
10000470:	fe5212e3          	bne	x4,x5,10000454 <test_25+0x4>
10000474:	0a500393          	li	x7,165
10000478:	01900193          	li	x3,25
1000047c:	04771c63          	bne	x14,x7,100004d4 <fail>

10000480 <test_26>:
10000480:	01f00093          	li	x1,31
10000484:	02100133          	mul	x2,x0,x1
10000488:	00000393          	li	x7,0
1000048c:	01a00193          	li	x3,26
10000490:	04711263          	bne	x2,x7,100004d4 <fail>

10000494 <test_27>:
10000494:	02000093          	li	x1,32
10000498:	02008133          	mul	x2,x1,x0
1000049c:	00000393          	li	x7,0
100004a0:	01b00193          	li	x3,27
100004a4:	02711863          	bne	x2,x7,100004d4 <fail>

100004a8 <test_28>:
100004a8:	020000b3          	mul	x1,x0,x0
100004ac:	00000393          	li	x7,0
100004b0:	01c00193          	li	x3,28
100004b4:	02709063          	bne	x1,x7,100004d4 <fail>

100004b8 <test_29>:
100004b8:	02100093          	li	x1,33
100004bc:	02200113          	li	x2,34
100004c0:	02208033          	mul	x0,x1,x2
100004c4:	00000393          	li	x7,0
100004c8:	01d00193          	li	x3,29
100004cc:	00701463          	bne	x0,x7,100004d4 <fail>
100004d0:	00301a63          	bne	x0,x3,100004e4 <pass>

100004d4 <fail>:
100004d4:	00119193          	slli	x3,x3,0x1
100004d8:	0011e193          	ori	x3,x3,1
100004dc:	51e19073          	csrw	0x51e,x3

100004e0 <f>:
100004e0:	0000006f          	j	100004e0 <f>

100004e4 <pass>:
100004e4:	00100193          	li	x3,1
100004e8:	51e19073          	csrw	0x51e,x3

100004ec <p>:
100004ec:	0000006f          	j	100004ec <p>
100004f0:	c0001073          	unimp
	...

Disassembly of section .riscv.attributes:

00000000 <.riscv.attributes>:
   0:	1e41                	addi	x28,x28,-16
   2:	0000                	unimp
   4:	7200                	flw	f8,32(x12)
   6:	7369                	lui	x6,0xffffa
   8:	01007663          	bgeu	x0,x16,14 <_start-0xfffffec>
   c:	0014                	0x14
   e:	0000                	unimp
  10:	7205                	lui	x4,0xfffe1
  12:	3376                	fld	f6,376(x2)
  14:	6932                	flw	f18,12(x2)
  16:	7032                	flw	f0,44(x2)
  18:	5f30                	lw	x12,120(x14)
  1a:	326d                	jal	fffff9c4 <_end+0xefffe9c4>
  1c:	3070                	fld	f12,224(x8)
	...
